; Function Attrs: mustprogress nounwind uwtable
define hidden void @_ZN11FileMapInfo16seek_to_positionEm(ptr nocapture noundef nonnull readonly align 8 dereferenceable(40) %0, i64 noundef %1) local_unnamed_addr #0 align 2 {
  %3 = getelementptr inbounds i8, ptr %0, i64 4
  %4 = load i32, ptr %3, align 4
  %5 = tail call noundef i64 @_ZN2os5lseekEili(i32 noundef %4, i64 noundef %1, i32 noundef 0) #25
  %6 = icmp slt i64 %5, 0
  br i1 %6, label %7, label %11

7:                                                ; preds = %2
  %8 = load volatile ptr, ptr getelementptr inbounds (i8, ptr @_ZN16LogTagSetMappingILN6LogTag4typeE14ELS1_0ELS1_0ELS1_0ELS1_0ELS1_0EE7_tagsetE, i64 80), align 8
  %.not = icmp eq ptr %8, null
  br i1 %.not, label %10, label %9

9:                                                ; preds = %7
  tail call void (ptr, ...) @_ZN7LogImplILN6LogTag4typeE14ELS1_0ELS1_0ELS1_0ELS1_0ELS1_0EE5writeILN8LogLevel4typeE5EEEvPKcz(ptr noundef nonnull @.str.105, i64 noundef %1)
  br label %10

10:                                               ; preds = %7, %9
  tail call void @_ZN15MetaspaceShared27unrecoverable_loading_errorEPKc(ptr noundef null) #25
  br label %11

11:                                               ; preds = %10, %2
  ret void
}